target datalayout = "e-m:e-p270:32:32-p271:32:32-p272:64:64-i64:64-i128:128-f80:128-n8:16:32:64-S128"
target triple = "x86_64-pc-linux-gnu"

@.str.2064 = private unnamed_addr constant [51 x i8] c"Next time the RBA sub-band direction set is active\00", align 1
@.str.2065 = private unnamed_addr constant [80 x i8] c"When the channel(s) in the RBA on which partial service occurred have recovered\00", align 1
@.str.2066 = private unnamed_addr constant [6 x i8] c"%d ms\00", align 1

; Function Attrs: null_pointer_is_valid sspstrong uwtable
define internal void @ect_deferral_time_val(ptr noundef %0, i16 noundef zeroext %1) #0 {
  %3 = alloca ptr, align 8
  %4 = alloca i16, align 2
  store ptr %0, ptr %3, align 8
  store i16 %1, ptr %4, align 2
  %5 = load i16, ptr %4, align 2
  %6 = zext i16 %5 to i32
  switch i32 %6, label %17 [
    i32 0, label %7
    i32 1, label %12
  ]

7:                                                ; preds = %2
  %8 = load ptr, ptr %3, align 8
  %9 = load ptr, ptr %3, align 8
  %10 = call i64 @llvm.objectsize.i64.p0(ptr %9, i1 false, i1 true, i1 true)
  %11 = call i32 (ptr, i64, i32, i64, ptr, ...) @__snprintf_chk(ptr noundef %8, i64 noundef 240, i32 noundef 2, i64 noundef %10, ptr noundef @.str.2064)
  br label %24

12:                                               ; preds = %2
  %13 = load ptr, ptr %3, align 8
  %14 = load ptr, ptr %3, align 8
  %15 = call i64 @llvm.objectsize.i64.p0(ptr %14, i1 false, i1 true, i1 true)
  %16 = call i32 (ptr, i64, i32, i64, ptr, ...) @__snprintf_chk(ptr noundef %13, i64 noundef 240, i32 noundef 2, i64 noundef %15, ptr noundef @.str.2065)
  br label %24

17:                                               ; preds = %2
  %18 = load ptr, ptr %3, align 8
  %19 = load ptr, ptr %3, align 8
  %20 = call i64 @llvm.objectsize.i64.p0(ptr %19, i1 false, i1 true, i1 true)
  %21 = load i16, ptr %4, align 2
  %22 = zext i16 %21 to i32
  %23 = call i32 (ptr, i64, i32, i64, ptr, ...) @__snprintf_chk(ptr noundef %18, i64 noundef 240, i32 noundef 2, i64 noundef %20, ptr noundef @.str.2066, i32 noundef %22)
  br label %24

24:                                               ; preds = %17, %12, %7
  ret void
}