; Function Attrs: nofree null_pointer_is_valid sspstrong uwtable
define internal void @ect_deferral_time_val(ptr noundef %0, i16 noundef zeroext %1) #1 {
  switch i16 %1, label %7 [
    i16 0, label %3
    i16 1, label %5
  ]

3:                                                ; preds = %2
  %4 = tail call i32 (ptr, i64, i32, i64, ptr, ...) @__snprintf_chk(ptr noundef %0, i64 noundef 240, i32 noundef 2, i64 noundef -1, ptr noundef nonnull @.str.2064)
  br label %10

5:                                                ; preds = %2
  %6 = tail call i32 (ptr, i64, i32, i64, ptr, ...) @__snprintf_chk(ptr noundef %0, i64 noundef 240, i32 noundef 2, i64 noundef -1, ptr noundef nonnull @.str.2065)
  br label %10

7:                                                ; preds = %2
  %8 = zext i16 %1 to i32
  %9 = tail call i32 (ptr, i64, i32, i64, ptr, ...) @__snprintf_chk(ptr noundef %0, i64 noundef 240, i32 noundef 2, i64 noundef -1, ptr noundef nonnull @.str.2066, i32 noundef %8)
  br label %10

10:                                               ; preds = %7, %5, %3
  ret void
}